; Function Attrs: mustprogress nofree norecurse nosync nounwind willreturn memory(readwrite, inaccessiblemem: none) uwtable
define dso_local noundef ptr @_Z25lua_tolightuserdatataggedP9lua_Stateii(ptr noundef readonly captures(none) %0, i32 noundef %1, i32 noundef %2) local_unnamed_addr #0 {
  %4 = icmp sgt i32 %1, 0
  br i1 %4, label %5, label %13

5:                                                ; preds = %3
  %6 = getelementptr inbounds nuw i8, ptr %0, i64 16
  %7 = load ptr, ptr %6, align 8, !tbaa !4
  %8 = zext nneg i32 %1 to i64
  %9 = getelementptr %struct.lua_TValue, ptr %7, i64 %8
  %10 = getelementptr i8, ptr %9, i64 -16
  %11 = getelementptr inbounds nuw i8, ptr %0, i64 8
  %12 = load ptr, ptr %11, align 8, !tbaa !19
  %.not.i = icmp ult ptr %10, %12
  %.luaO_nilobject_.i = select i1 %.not.i, ptr %10, ptr @luaO_nilobject_
  br label %_ZL10index2addrP9lua_Statei.exit

13:                                               ; preds = %3
  %14 = icmp sgt i32 %1, -10000
  br i1 %14, label %15, label %20

15:                                               ; preds = %13
  %16 = getelementptr inbounds nuw i8, ptr %0, i64 8
  %17 = load ptr, ptr %16, align 8, !tbaa !19
  %18 = sext i32 %1 to i64
  %19 = getelementptr inbounds %struct.lua_TValue, ptr %17, i64 %18
  br label %_ZL10index2addrP9lua_Statei.exit

20:                                               ; preds = %13
  %21 = tail call fastcc noundef ptr @_ZL11pseudo2addrP9lua_Statei(ptr noundef %0, i32 noundef %1)
  br label %_ZL10index2addrP9lua_Statei.exit

_ZL10index2addrP9lua_Statei.exit:                 ; preds = %5, %15, %20
  %.1.i = phi ptr [ %.luaO_nilobject_.i, %5 ], [ %19, %15 ], [ %21, %20 ]
  %22 = getelementptr inbounds nuw i8, ptr %.1.i, i64 12
  %23 = load i32, ptr %22, align 4, !tbaa !47
  %24 = icmp eq i32 %23, 2
  br i1 %24, label %25, label %30

25:                                               ; preds = %_ZL10index2addrP9lua_Statei.exit
  %26 = getelementptr inbounds nuw i8, ptr %.1.i, i64 8
  %27 = load i32, ptr %26, align 8, !tbaa !22
  %.not = icmp eq i32 %27, %2
  br i1 %.not, label %28, label %30

28:                                               ; preds = %25
  %29 = load ptr, ptr %.1.i, align 8, !tbaa !21
  br label %30

30:                                               ; preds = %_ZL10index2addrP9lua_Statei.exit, %25, %28
  %31 = phi ptr [ %29, %28 ], [ null, %25 ], [ null, %_ZL10index2addrP9lua_Statei.exit ]
  ret ptr %31
}